target datalayout = "e-m:e-p270:32:32-p271:32:32-p272:64:64-i64:64-i128:128-f80:128-n8:16:32:64-S128"
target triple = "x86_64-unknown-linux-gnu"

%struct.QObject = type { %struct.QObjectBase_ }
%struct.QObjectBase_ = type { i32, i64 }
%struct.QDictEntry = type { ptr, ptr, %struct.anon }
%struct.anon = type { ptr, ptr }
%struct.QDict = type { %struct.QObjectBase_, i64, [512 x %struct.anon.0] }
%struct.anon.0 = type { ptr }

@.str.15 = private unnamed_addr constant [59 x i8] c"QTYPE_NONE < obj->base.type && obj->base.type < QTYPE__MAX\00", align 1
@.str.16 = private unnamed_addr constant [105 x i8] c"/home/dtcxzyw/WorkSpace/Projects/compilers/llvm-opt-benchmark/bench/qemu/qemu/include/qapi/qmp/qobject.h\00", align 1
@__PRETTY_FUNCTION__.qobject_type = private unnamed_addr constant [36 x i8] c"QType qobject_type(const QObject *)\00", align 1
@.str.18 = private unnamed_addr constant [25 x i8] c"!obj || obj->base.refcnt\00", align 1
@__PRETTY_FUNCTION__.qobject_unref_impl = private unnamed_addr constant [35 x i8] c"void qobject_unref_impl(QObject *)\00", align 1
@.str.22 = private unnamed_addr constant [3 x i8] c"on\00", align 1
@.str.23 = private unnamed_addr constant [4 x i8] c"off\00", align 1

; Function Attrs: nounwind sspstrong uwtable
define internal ptr @qobject_check_type(ptr noundef %obj, i32 noundef %type) #0 {
entry:
  %retval = alloca ptr, align 8
  %obj.addr = alloca ptr, align 8
  %type.addr = alloca i32, align 4
  store ptr %obj, ptr %obj.addr, align 8
  store i32 %type, ptr %type.addr, align 4
  %0 = load ptr, ptr %obj.addr, align 8
  %tobool = icmp ne ptr %0, null
  br i1 %tobool, label %land.lhs.true, label %if.else

land.lhs.true:                                    ; preds = %entry
  %1 = load ptr, ptr %obj.addr, align 8
  %call = call i32 @qobject_type(ptr noundef %1)
  %2 = load i32, ptr %type.addr, align 4
  %cmp = icmp eq i32 %call, %2
  br i1 %cmp, label %if.then, label %if.else

if.then:                                          ; preds = %land.lhs.true
  %3 = load ptr, ptr %obj.addr, align 8
  store ptr %3, ptr %retval, align 8
  br label %return

if.else:                                          ; preds = %land.lhs.true, %entry
  store ptr null, ptr %retval, align 8
  br label %return

return:                                           ; preds = %if.else, %if.then
  %4 = load ptr, ptr %retval, align 8
  ret ptr %4
}

; Function Attrs: nounwind sspstrong uwtable
define internal i32 @qobject_type(ptr noundef %obj) #0 {
entry:
  %obj.addr = alloca ptr, align 8
  store ptr %obj, ptr %obj.addr, align 8
  %0 = load ptr, ptr %obj.addr, align 8
  %base = getelementptr inbounds %struct.QObject, ptr %0, i32 0, i32 0
  %type = getelementptr inbounds %struct.QObjectBase_, ptr %base, i32 0, i32 0
  %1 = load i32, ptr %type, align 8
  %cmp = icmp ult i32 0, %1
  br i1 %cmp, label %land.lhs.true, label %if.else

land.lhs.true:                                    ; preds = %entry
  %2 = load ptr, ptr %obj.addr, align 8
  %base1 = getelementptr inbounds %struct.QObject, ptr %2, i32 0, i32 0
  %type2 = getelementptr inbounds %struct.QObjectBase_, ptr %base1, i32 0, i32 0
  %3 = load i32, ptr %type2, align 8
  %cmp3 = icmp ult i32 %3, 7
  br i1 %cmp3, label %if.then, label %if.else

if.then:                                          ; preds = %land.lhs.true
  br label %if.end

if.else:                                          ; preds = %land.lhs.true, %entry
  call void @__assert_fail(ptr noundef @.str.15, ptr noundef @.str.16, i32 noundef 126, ptr noundef @__PRETTY_FUNCTION__.qobject_type) #6
  unreachable

if.end:                                           ; preds = %if.then
  %4 = load ptr, ptr %obj.addr, align 8
  %base4 = getelementptr inbounds %struct.QObject, ptr %4, i32 0, i32 0
  %type5 = getelementptr inbounds %struct.QObjectBase_, ptr %base4, i32 0, i32 0
  %5 = load i32, ptr %type5, align 8
  ret i32 %5
}

; Function Attrs: nounwind sspstrong uwtable
define internal void @qobject_unref_impl(ptr noundef %obj) #0 {
entry:
  %obj.addr = alloca ptr, align 8
  store ptr %obj, ptr %obj.addr, align 8
  %0 = load ptr, ptr %obj.addr, align 8
  %tobool = icmp ne ptr %0, null
  br i1 %tobool, label %lor.lhs.false, label %if.then

lor.lhs.false:                                    ; preds = %entry
  %1 = load ptr, ptr %obj.addr, align 8
  %base = getelementptr inbounds %struct.QObject, ptr %1, i32 0, i32 0
  %refcnt = getelementptr inbounds %struct.QObjectBase_, ptr %base, i32 0, i32 1
  %2 = load i64, ptr %refcnt, align 8
  %tobool1 = icmp ne i64 %2, 0
  br i1 %tobool1, label %if.then, label %if.else

if.then:                                          ; preds = %lor.lhs.false, %entry
  br label %if.end

if.else:                                          ; preds = %lor.lhs.false
  call void @__assert_fail(ptr noundef @.str.18, ptr noundef @.str.16, i32 noundef 97, ptr noundef @__PRETTY_FUNCTION__.qobject_unref_impl) #6
  unreachable

if.end:                                           ; preds = %if.then
  %3 = load ptr, ptr %obj.addr, align 8
  %tobool2 = icmp ne ptr %3, null
  br i1 %tobool2, label %land.lhs.true, label %if.end6

land.lhs.true:                                    ; preds = %if.end
  %4 = load ptr, ptr %obj.addr, align 8
  %base3 = getelementptr inbounds %struct.QObject, ptr %4, i32 0, i32 0
  %refcnt4 = getelementptr inbounds %struct.QObjectBase_, ptr %base3, i32 0, i32 1
  %5 = load i64, ptr %refcnt4, align 8
  %dec = add i64 %5, -1
  store i64 %dec, ptr %refcnt4, align 8
  %cmp = icmp eq i64 %dec, 0
  br i1 %cmp, label %if.then5, label %if.end6

if.then5:                                         ; preds = %land.lhs.true
  %6 = load ptr, ptr %obj.addr, align 8
  call void @qobject_destroy(ptr noundef %6)
  br label %if.end6

if.end6:                                          ; preds = %if.then5, %land.lhs.true, %if.end
  ret void
}

; Function Attrs: nounwind sspstrong uwtable
define internal ptr @qdict_crumple_for_keyval_qiv(ptr noundef %src, ptr noundef %errp) #0 {
entry:
  %src.addr = alloca ptr, align 8
  %errp.addr = alloca ptr, align 8
  %tmp = alloca ptr, align 8
  %buf = alloca ptr, align 8
  %s = alloca ptr, align 8
  %ent = alloca ptr, align 8
  %dst = alloca ptr, align 8
  %_obj18 = alloca ptr, align 8
  %tmp17 = alloca ptr, align 8
  %__mptr = alloca ptr, align 8
  %tmp20 = alloca ptr, align 8
  store ptr %src, ptr %src.addr, align 8
  store ptr %errp, ptr %errp.addr, align 8
  store ptr null, ptr %tmp, align 8
  %0 = load ptr, ptr %src.addr, align 8
  %call = call ptr @qdict_first(ptr noundef %0)
  store ptr %call, ptr %ent, align 8
  br label %for.cond

for.cond:                                         ; preds = %for.inc, %entry
  %1 = load ptr, ptr %ent, align 8
  %tobool = icmp ne ptr %1, null
  br i1 %tobool, label %for.body, label %for.end

for.body:                                         ; preds = %for.cond
  store ptr null, ptr %buf, align 8
  %2 = load ptr, ptr %ent, align 8
  %value = getelementptr inbounds %struct.QDictEntry, ptr %2, i32 0, i32 1
  %3 = load ptr, ptr %value, align 8
  %call1 = call i32 @qobject_type(ptr noundef %3)
  switch i32 %call1, label %sw.default [
    i32 1, label %sw.bb
    i32 3, label %sw.bb
    i32 2, label %sw.bb2
    i32 4, label %sw.bb6
    i32 5, label %sw.bb6
    i32 6, label %sw.bb7
  ]

sw.bb:                                            ; preds = %for.body, %for.body
  br label %for.inc

sw.bb2:                                           ; preds = %for.body
  %4 = load ptr, ptr %ent, align 8
  %value3 = getelementptr inbounds %struct.QDictEntry, ptr %4, i32 0, i32 1
  %5 = load ptr, ptr %value3, align 8
  %call4 = call ptr @qobject_check_type(ptr noundef %5, i32 noundef 2)
  %call5 = call ptr @qnum_to_string(ptr noundef %call4)
  store ptr %call5, ptr %buf, align 8
  store ptr %call5, ptr %s, align 8
  br label %sw.epilog

sw.bb6:                                           ; preds = %for.body, %for.body
  br label %for.inc

sw.bb7:                                           ; preds = %for.body
  %6 = load ptr, ptr %ent, align 8
  %value8 = getelementptr inbounds %struct.QDictEntry, ptr %6, i32 0, i32 1
  %7 = load ptr, ptr %value8, align 8
  %call9 = call ptr @qobject_check_type(ptr noundef %7, i32 noundef 6)
  %call10 = call zeroext i1 @qbool_get_bool(ptr noundef %call9)
  %cond = select i1 %call10, ptr @.str.22, ptr @.str.23
  store ptr %cond, ptr %s, align 8
  br label %sw.epilog

sw.default:                                       ; preds = %for.body
  call void @abort() #6
  unreachable

sw.epilog:                                        ; preds = %sw.bb7, %sw.bb2
  %8 = load ptr, ptr %tmp, align 8
  %tobool11 = icmp ne ptr %8, null
  br i1 %tobool11, label %if.end, label %if.then

if.then:                                          ; preds = %sw.epilog
  %9 = load ptr, ptr %src.addr, align 8
  %call12 = call ptr @qdict_clone_shallow(ptr noundef %9)
  store ptr %call12, ptr %tmp, align 8
  br label %if.end

if.end:                                           ; preds = %if.then, %sw.epilog
  %10 = load ptr, ptr %tmp, align 8
  %11 = load ptr, ptr %ent, align 8
  %key = getelementptr inbounds %struct.QDictEntry, ptr %11, i32 0, i32 0
  %12 = load ptr, ptr %key, align 8
  %13 = load ptr, ptr %s, align 8
  call void @qdict_put_str(ptr noundef %10, ptr noundef %12, ptr noundef %13)
  %14 = load ptr, ptr %buf, align 8
  call void @g_free(ptr noundef %14)
  br label %for.inc

for.inc:                                          ; preds = %if.end, %sw.bb6, %sw.bb
  %15 = load ptr, ptr %src.addr, align 8
  %16 = load ptr, ptr %ent, align 8
  %call13 = call ptr @qdict_next(ptr noundef %15, ptr noundef %16)
  store ptr %call13, ptr %ent, align 8
  br label %for.cond, !llvm.loop !20

for.end:                                          ; preds = %for.cond
  %17 = load ptr, ptr %tmp, align 8
  %tobool14 = icmp ne ptr %17, null
  br i1 %tobool14, label %cond.true, label %cond.false

cond.true:                                        ; preds = %for.end
  br label %cond.end

cond.false:                                       ; preds = %for.end
  %18 = load ptr, ptr %src.addr, align 8
  br label %cond.end

cond.end:                                         ; preds = %cond.false, %cond.true
  %cond15 = phi ptr [ %17, %cond.true ], [ %18, %cond.false ]
  %19 = load ptr, ptr %errp.addr, align 8
  %call16 = call ptr @qdict_crumple(ptr noundef %cond15, ptr noundef %19)
  store ptr %call16, ptr %dst, align 8
  %20 = load ptr, ptr %tmp, align 8
  store ptr %20, ptr %_obj18, align 8
  %21 = load ptr, ptr %_obj18, align 8
  %tobool18 = icmp ne ptr %21, null
  br i1 %tobool18, label %cond.true19, label %cond.false21

cond.true19:                                      ; preds = %cond.end
  %22 = load ptr, ptr %_obj18, align 8
  %base = getelementptr inbounds %struct.QDict, ptr %22, i32 0, i32 0
  store ptr %base, ptr %__mptr, align 8
  %23 = load ptr, ptr %__mptr, align 8
  %add.ptr = getelementptr i8, ptr %23, i64 0
  store ptr %add.ptr, ptr %tmp20, align 8
  %24 = load ptr, ptr %tmp20, align 8
  br label %cond.end22

cond.false21:                                     ; preds = %cond.end
  br label %cond.end22

cond.end22:                                       ; preds = %cond.false21, %cond.true19
  %cond23 = phi ptr [ %24, %cond.true19 ], [ null, %cond.false21 ]
  store ptr %cond23, ptr %tmp17, align 8
  %25 = load ptr, ptr %tmp17, align 8
  call void @qobject_unref_impl(ptr noundef %25)
  %26 = load ptr, ptr %dst, align 8
  ret ptr %26
}

; Function Attrs: nounwind sspstrong uwtable
define dso_local ptr @qobject_input_visitor_new_flat_confused(ptr noundef %qdict, ptr noundef %errp) #0 {
entry:
  %retval = alloca ptr, align 8
  %qdict.addr = alloca ptr, align 8
  %errp.addr = alloca ptr, align 8
  %crumpled = alloca ptr, align 8
  %v = alloca ptr, align 8
  %_obj21 = alloca ptr, align 8
  %tmp = alloca ptr, align 8
  %__mptr = alloca ptr, align 8
  %tmp3 = alloca ptr, align 8
  store ptr %qdict, ptr %qdict.addr, align 8
  store ptr %errp, ptr %errp.addr, align 8
  %0 = load ptr, ptr %qdict.addr, align 8
  %1 = load ptr, ptr %errp.addr, align 8
  %call = call ptr @qdict_crumple_for_keyval_qiv(ptr noundef %0, ptr noundef %1)
  store ptr %call, ptr %crumpled, align 8
  %2 = load ptr, ptr %crumpled, align 8
  %tobool = icmp ne ptr %2, null
  br i1 %tobool, label %if.end, label %if.then

if.then:                                          ; preds = %entry
  store ptr null, ptr %retval, align 8
  br label %return

if.end:                                           ; preds = %entry
  %3 = load ptr, ptr %crumpled, align 8
  %call1 = call ptr @qobject_input_visitor_new_keyval(ptr noundef %3)
  store ptr %call1, ptr %v, align 8
  %4 = load ptr, ptr %crumpled, align 8
  store ptr %4, ptr %_obj21, align 8
  %5 = load ptr, ptr %_obj21, align 8
  %tobool2 = icmp ne ptr %5, null
  br i1 %tobool2, label %cond.true, label %cond.false

cond.true:                                        ; preds = %if.end
  %6 = load ptr, ptr %_obj21, align 8
  %base = getelementptr inbounds %struct.QObject, ptr %6, i32 0, i32 0
  store ptr %base, ptr %__mptr, align 8
  %7 = load ptr, ptr %__mptr, align 8
  %add.ptr = getelementptr i8, ptr %7, i64 0
  store ptr %add.ptr, ptr %tmp3, align 8
  %8 = load ptr, ptr %tmp3, align 8
  br label %cond.end

cond.false:                                       ; preds = %if.end
  br label %cond.end

cond.end:                                         ; preds = %cond.false, %cond.true
  %cond = phi ptr [ %8, %cond.true ], [ null, %cond.false ]
  store ptr %cond, ptr %tmp, align 8
  %9 = load ptr, ptr %tmp, align 8
  call void @qobject_unref_impl(ptr noundef %9)
  %10 = load ptr, ptr %v, align 8
  store ptr %10, ptr %retval, align 8
  br label %return

return:                                           ; preds = %cond.end, %if.then
  %11 = load ptr, ptr %retval, align 8
  ret ptr %11
}