; Function Attrs: nounwind sspstrong uwtable
define dso_local ptr @qobject_input_visitor_new_flat_confused(ptr noundef %qdict, ptr noundef %errp) local_unnamed_addr #0 {
entry:
  %call.i = tail call ptr @qdict_first(ptr noundef %qdict) #7
  %tobool.not30.i = icmp eq ptr %call.i, null
  br i1 %tobool.not30.i, label %for.end.thread.i, label %for.body.i

for.end.thread.i:                                 ; preds = %entry
  %call1636.i = tail call ptr @qdict_crumple(ptr noundef %qdict, ptr noundef %errp)
  br label %qdict_crumple_for_keyval_qiv.exit

for.body.i:                                       ; preds = %entry, %for.inc.i
  %tmp.032.i = phi ptr [ %tmp.1.i, %for.inc.i ], [ null, %entry ]
  %ent.031.i = phi ptr [ %call13.i, %for.inc.i ], [ %call.i, %entry ]
  %value.i = getelementptr inbounds nuw i8, ptr %ent.031.i, i64 8
  %0 = load ptr, ptr %value.i, align 8
  %.val.i = load i32, ptr %0, align 8
  %1 = add i32 %.val.i, -1
  %or.cond.i.i = icmp ult i32 %1, 6
  br i1 %or.cond.i.i, label %qobject_type.exit.i, label %if.else.i.i

if.else.i.i:                                      ; preds = %for.body.i
  tail call void @__assert_fail(ptr noundef nonnull @.str.15, ptr noundef nonnull @.str.16, i32 noundef 126, ptr noundef nonnull @__PRETTY_FUNCTION__.qobject_type) #8
  unreachable

qobject_type.exit.i:                              ; preds = %for.body.i
  switch i32 %.val.i, label %default.unreachable.i [
    i32 1, label %for.inc.i
    i32 3, label %for.inc.i
    i32 2, label %qobject_check_type.exit.i
    i32 4, label %for.inc.i
    i32 5, label %for.inc.i
    i32 6, label %qobject_check_type.exit23.i
  ]

qobject_check_type.exit.i:                        ; preds = %qobject_type.exit.i
  %call5.i = tail call ptr @qnum_to_string(ptr noundef nonnull %0) #7
  br label %sw.epilog.i

qobject_check_type.exit23.i:                      ; preds = %qobject_type.exit.i
  %call10.i = tail call zeroext i1 @qbool_get_bool(ptr noundef nonnull %0) #7
  %cond.i = select i1 %call10.i, ptr @.str.22, ptr @.str.23
  br label %sw.epilog.i

default.unreachable.i:                            ; preds = %qobject_type.exit.i
  unreachable

sw.epilog.i:                                      ; preds = %qobject_check_type.exit23.i, %qobject_check_type.exit.i
  %s.0.i = phi ptr [ %cond.i, %qobject_check_type.exit23.i ], [ %call5.i, %qobject_check_type.exit.i ]
  %buf.0.i = phi ptr [ null, %qobject_check_type.exit23.i ], [ %call5.i, %qobject_check_type.exit.i ]
  %tobool11.not.i = icmp eq ptr %tmp.032.i, null
  br i1 %tobool11.not.i, label %if.then.i, label %if.end.i

if.then.i:                                        ; preds = %sw.epilog.i
  %call12.i = tail call ptr @qdict_clone_shallow(ptr noundef %qdict) #7
  br label %if.end.i

if.end.i:                                         ; preds = %if.then.i, %sw.epilog.i
  %tmp.2.i = phi ptr [ %tmp.032.i, %sw.epilog.i ], [ %call12.i, %if.then.i ]
  %2 = load ptr, ptr %ent.031.i, align 8
  tail call void @qdict_put_str(ptr noundef %tmp.2.i, ptr noundef %2, ptr noundef %s.0.i) #7
  tail call void @g_free(ptr noundef %buf.0.i) #7
  br label %for.inc.i

for.inc.i:                                        ; preds = %if.end.i, %qobject_type.exit.i, %qobject_type.exit.i, %qobject_type.exit.i, %qobject_type.exit.i
  %tmp.1.i = phi ptr [ %tmp.2.i, %if.end.i ], [ %tmp.032.i, %qobject_type.exit.i ], [ %tmp.032.i, %qobject_type.exit.i ], [ %tmp.032.i, %qobject_type.exit.i ], [ %tmp.032.i, %qobject_type.exit.i ]
  %call13.i = tail call ptr @qdict_next(ptr noundef %qdict, ptr noundef nonnull %ent.031.i) #7
  %tobool.not.i = icmp eq ptr %call13.i, null
  br i1 %tobool.not.i, label %for.end.i, label %for.body.i, !llvm.loop !20

for.end.i:                                        ; preds = %for.inc.i
  %tobool14.not.i = icmp eq ptr %tmp.1.i, null
  %cond15.i = select i1 %tobool14.not.i, ptr %qdict, ptr %tmp.1.i
  %call16.i = tail call ptr @qdict_crumple(ptr noundef %cond15.i, ptr noundef %errp)
  br i1 %tobool14.not.i, label %qdict_crumple_for_keyval_qiv.exit, label %lor.lhs.false.i.i

lor.lhs.false.i.i:                                ; preds = %for.end.i
  %refcnt.i.i = getelementptr inbounds nuw i8, ptr %tmp.1.i, i64 8
  %3 = load i64, ptr %refcnt.i.i, align 8
  %tobool1.not.i.i = icmp eq i64 %3, 0
  br i1 %tobool1.not.i.i, label %if.else.i27.i, label %land.lhs.true.i25.i

if.else.i27.i:                                    ; preds = %lor.lhs.false.i.i
  tail call void @__assert_fail(ptr noundef nonnull @.str.18, ptr noundef nonnull @.str.16, i32 noundef 97, ptr noundef nonnull @__PRETTY_FUNCTION__.qobject_unref_impl) #8
  unreachable

land.lhs.true.i25.i:                              ; preds = %lor.lhs.false.i.i
  %dec.i.i = add i64 %3, -1
  store i64 %dec.i.i, ptr %refcnt.i.i, align 8
  %cmp.i26.i = icmp eq i64 %dec.i.i, 0
  br i1 %cmp.i26.i, label %if.then5.i.i, label %qdict_crumple_for_keyval_qiv.exit

if.then5.i.i:                                     ; preds = %land.lhs.true.i25.i
  tail call void @qobject_destroy(ptr noundef nonnull %tmp.1.i) #7
  br label %qdict_crumple_for_keyval_qiv.exit

qdict_crumple_for_keyval_qiv.exit:                ; preds = %for.end.thread.i, %for.end.i, %land.lhs.true.i25.i, %if.then5.i.i
  %call1637.i = phi ptr [ %call1636.i, %for.end.thread.i ], [ %call16.i, %for.end.i ], [ %call16.i, %land.lhs.true.i25.i ], [ %call16.i, %if.then5.i.i ]
  %tobool.not = icmp eq ptr %call1637.i, null
  br i1 %tobool.not, label %return, label %lor.lhs.false.i

lor.lhs.false.i:                                  ; preds = %qdict_crumple_for_keyval_qiv.exit
  %call1 = tail call ptr @qobject_input_visitor_new_keyval(ptr noundef nonnull %call1637.i) #7
  %refcnt.i = getelementptr inbounds nuw i8, ptr %call1637.i, i64 8
  %4 = load i64, ptr %refcnt.i, align 8
  %tobool1.not.i = icmp eq i64 %4, 0
  br i1 %tobool1.not.i, label %if.else.i, label %land.lhs.true.i

if.else.i:                                        ; preds = %lor.lhs.false.i
  tail call void @__assert_fail(ptr noundef nonnull @.str.18, ptr noundef nonnull @.str.16, i32 noundef 97, ptr noundef nonnull @__PRETTY_FUNCTION__.qobject_unref_impl) #8
  unreachable

land.lhs.true.i:                                  ; preds = %lor.lhs.false.i
  %dec.i = add i64 %4, -1
  store i64 %dec.i, ptr %refcnt.i, align 8
  %cmp.i = icmp eq i64 %dec.i, 0
  br i1 %cmp.i, label %if.then5.i, label %return

if.then5.i:                                       ; preds = %land.lhs.true.i
  tail call void @qobject_destroy(ptr noundef nonnull %call1637.i) #7
  br label %return

return:                                           ; preds = %if.then5.i, %land.lhs.true.i, %qdict_crumple_for_keyval_qiv.exit
  %retval.0 = phi ptr [ null, %qdict_crumple_for_keyval_qiv.exit ], [ %call1, %land.lhs.true.i ], [ %call1, %if.then5.i ]
  ret ptr %retval.0
}